Certificate:
    Data:
        Version: 3 (0x2)
        Serial Number: 1 (0x1)
    Signature Algorithm: sha256WithRSAEncryption
        Issuer: C=CN, ST=Shanghai, L=Shanghai, O=ZhuoPai, OU=XiYou, CN=ZhuoPaiXiYouCA
        Validity
            Not Before: May  5 07:59:40 2016 GMT
            Not After : May  3 07:59:40 2026 GMT
        Subject: C=CN, ST=Shanghai, L=Shanghai, O=ZhuoPai, OU=XiYou, CN=ZhuoPaiXiYouSrv
        Subject Public Key Info:
            Public Key Algorithm: rsaEncryption
                Public-Key: (2048 bit)
                Modulus:
                    00:95:97:7f:2a:60:70:2d:13:f0:28:3e:39:ae:3c:
                    f4:33:d9:7e:c9:b2:b2:4d:9b:cc:14:fb:7b:ad:17:
                    cc:89:0d:62:cf:33:00:27:76:9b:98:34:7a:94:da:
                    13:8f:bc:67:df:36:97:1b:65:55:2c:51:64:59:d0:
                    8e:35:4e:d8:f8:9e:be:4a:98:64:bd:cd:4d:d1:0f:
                    73:29:e9:c0:3c:e0:49:99:58:94:4e:95:9f:98:ca:
                    e5:5a:dc:f6:8e:1e:6d:9e:88:ba:9a:f8:d7:c1:50:
                    4d:bc:d4:eb:61:e0:b2:88:eb:69:a9:b4:98:19:0a:
                    8f:a7:0a:c1:f7:90:f9:01:de:81:75:51:99:3c:51:
                    31:69:c7:4f:19:f3:9c:39:56:01:99:29:94:9d:d7:
                    68:5d:94:50:4c:d1:e7:57:c4:dd:98:11:64:55:40:
                    3f:cf:ad:0e:e6:e7:0f:65:89:90:08:5c:6a:5c:94:
                    25:76:58:1f:df:a2:81:65:62:b1:b0:03:05:e7:5a:
                    c0:21:7a:d6:8a:03:33:f7:47:dd:b0:3b:04:83:6b:
                    86:35:d6:25:e2:b4:8a:ed:a7:4a:79:2b:c1:2f:70:
                    c2:e2:eb:07:d0:d4:ae:b2:7a:89:7e:b8:ed:8b:0a:
                    49:39:de:63:78:0f:28:35:6d:7b:7a:03:a1:58:13:
                    81:49
                Exponent: 65537 (0x10001)
        X509v3 extensions:
            X509v3 Basic Constraints: 
                CA:FALSE
            X509v3 Key Usage: 
                Digital Signature, Non Repudiation, Key Encipherment
            X509v3 Subject Alternative Name: 
                IP Address:10.24.100.176, IP Address:10.24.100.202, IP Address:10.24.100.203, IP Address:10.24.100.204, IP Address:10.24.100.205, IP Address:10.24.100.206, IP Address:10.24.100.207, IP Address:10.24.100.208, IP Address:10.24.100.209, IP Address:10.24.100.210, IP Address:10.131.160.242, IP Address:182.254.220.244, IP Address:10.59.66.8, IP Address:10.59.66.9, IP Address:10.59.66.10, IP Address:10.159.34.2, IP Address:10.159.34.3, IP Address:10.59.39.102, IP Address:10.59.39.103, IP Address:10.59.39.104, IP Address:10.59.39.105, IP Address:10.59.39.106, IP Address:10.59.39.107, IP Address:10.59.39.108, IP Address:10.59.39.109, IP Address:10.59.39.110, IP Address:10.59.39.111, IP Address:10.59.39.112, IP Address:10.59.39.113, IP Address:10.59.39.114, IP Address:10.59.39.115, IP Address:10.59.39.116, IP Address:10.59.39.117, IP Address:10.59.39.118, IP Address:10.59.39.119, IP Address:10.59.39.120, IP Address:10.59.39.121, IP Address:10.59.39.122, IP Address:10.59.39.123, IP Address:10.59.39.124, IP Address:10.59.39.125, IP Address:10.59.39.126, IP Address:10.59.39.127, IP Address:10.59.39.128, IP Address:10.59.39.129, IP Address:10.59.39.130, IP Address:115.159.199.48, IP Address:10.105.67.167, IP Address:124.108.163.184, IP Address:124.108.156.102
    Signature Algorithm: sha256WithRSAEncryption
         92:8c:c3:61:16:48:81:7f:65:89:e0:f5:78:bc:b9:66:6f:1e:
         b5:a0:62:c6:fe:78:bf:e4:a6:70:4f:33:8d:9b:2f:86:69:45:
         e3:d3:db:48:d3:e5:78:b7:b8:34:62:cb:a1:b8:e3:e2:dd:87:
         24:f9:49:9a:52:c7:e8:fe:56:89:6e:5b:87:35:82:07:97:89:
         f1:f9:ca:f2:1e:d7:db:75:b5:35:56:9e:1e:47:48:b3:c1:c5:
         2e:db:d3:e6:f6:be:6e:46:b0:7a:19:89:8f:0c:54:23:d0:d3:
         6a:c2:88:4a:5e:73:0c:02:91:85:b4:11:a5:d9:8a:35:df:02:
         9a:8a:2c:5f:6f:21:bc:bd:8e:6b:97:a0:2d:63:ca:b6:6f:65:
         a1:18:41:6c:a1:20:26:f8:99:b3:be:7f:2f:d9:6a:31:fd:3c:
         2f:48:1c:91:31:10:ac:58:54:90:79:09:39:8d:f0:e7:90:1c:
         fb:01:ae:86:4e:21:65:94:88:72:f6:dc:87:f7:a5:04:32:e1:
         0d:c1:4a:d6:e5:ce:09:aa:76:9f:7a:54:d3:d9:da:06:cd:33:
         04:75:ad:62:a8:8b:43:aa:c8:03:13:3c:c4:d5:88:7a:db:82:
         4c:34:de:53:60:74:ea:9d:05:c7:d5:9c:91:f7:1a:e1:a3:df:
         26:15:70:48
-----BEGIN CERTIFICATE-----
MIIEszCCA5ugAwIBAgIBATANBgkqhkiG9w0BAQsFADBuMQswCQYDVQQGEwJDTjER
MA8GA1UECAwIU2hhbmdoYWkxETAPBgNVBAcMCFNoYW5naGFpMRAwDgYDVQQKDAda
aHVvUGFpMQ4wDAYDVQQLDAVYaVlvdTEXMBUGA1UEAwwOWmh1b1BhaVhpWW91Q0Ew
HhcNMTYwNTA1MDc1OTQwWhcNMjYwNTAzMDc1OTQwWjBvMQswCQYDVQQGEwJDTjER
MA8GA1UECAwIU2hhbmdoYWkxETAPBgNVBAcMCFNoYW5naGFpMRAwDgYDVQQKDAda
aHVvUGFpMQ4wDAYDVQQLDAVYaVlvdTEYMBYGA1UEAwwPWmh1b1BhaVhpWW91U3J2
MIIBIjANBgkqhkiG9w0BAQEFAAOCAQ8AMIIBCgKCAQEAlZd/KmBwLRPwKD45rjz0
M9l+ybKyTZvMFPt7rRfMiQ1izzMAJ3abmDR6lNoTj7xn3zaXG2VVLFFkWdCONU7Y
+J6+Sphkvc1N0Q9zKenAPOBJmViUTpWfmMrlWtz2jh5tnoi6mvjXwVBNvNTrYeCy
iOtpqbSYGQqPpwrB95D5Ad6BdVGZPFExacdPGfOcOVYBmSmUnddoXZRQTNHnV8Td
mBFkVUA/z60O5ucPZYmQCFxqXJQldlgf36KBZWKxsAMF51rAIXrWigMz90fdsDsE
g2uGNdYl4rSK7adKeSvBL3DC4usH0NSusnqJfrjtiwpJOd5jeA8oNW17egOhWBOB
SQIDAQABo4IBWTCCAVUwCQYDVR0TBAIwADALBgNVHQ8EBAMCBeAwggE5BgNVHREE
ggEwMIIBLIcEChhksIcEChhkyocEChhky4cEChhkzIcEChhkzYcEChhkzocEChhk
z4cEChhk0IcEChhk0YcEChhk0ocECoOg8ocEtv7c9IcECjtCCIcECjtCCYcECjtC
CocECp8iAocECp8iA4cECjsnZocECjsnZ4cECjsnaIcECjsnaYcECjsnaocECjsn
a4cECjsnbIcECjsnbYcECjsnbocECjsnb4cECjsncIcECjsncYcECjsncocECjsn
c4cECjsndIcECjsndYcECjsndocECjsnd4cECjsneIcECjsneYcECjsneocECjsn
e4cECjsnfIcECjsnfYcECjsnfocECjsnf4cECjsngIcECjsngYcECjsngocEc5/H
MIcECmlDp4cEfGyjuIcEfGycZjANBgkqhkiG9w0BAQsFAAOCAQEAkozDYRZIgX9l
ieD1eLy5Zm8etaBixv54v+SmcE8zjZsvhmlF49PbSNPleLe4NGLLobjj4t2HJPlJ
mlLH6P5WiW5bhzWCB5eJ8fnK8h7X23W1NVaeHkdIs8HFLtvT5va+bkawehmJjwxU
I9DTasKISl5zDAKRhbQRpdmKNd8CmoosX28hvL2Oa5egLWPKtm9loRhBbKEgJviZ
s75/L9lqMf08L0gckTEQrFhUkHkJOY3w55Ac+wGuhk4hZZSIcvbch/elBDLhDcFK
1uXOCap2n3pU09naBs0zBHWtYqiLQ6rIAxM8xNWIetuCTDTeU2B06p0Fx9Wckfca
4aPfJhVwSA==
-----END CERTIFICATE-----
